target datalayout = "e-m:e-p270:32:32-p271:32:32-p272:64:64-i64:64-i128:128-f80:128-n8:16:32:64-S128"
target triple = "x86_64-pc-linux-gnu"

%class.PhaseCFG = type { %class.Phase, ptr, ptr, %class.Block_List, i32, ptr, ptr, i8, ptr, %class.Block_Array, ptr, double, ptr, ptr }
%class.Phase = type { i32, ptr }
%class.Block_List = type <{ %class.Block_Array, i32, [4 x i8] }>
%class.Block_Array = type { i32, ptr, ptr }
%class.Node = type <{ ptr, ptr, ptr, i32, i32, i32, i32, i32, i32, i32, [4 x i8] }>

; Function Attrs: mustprogress nounwind uwtable
define linkonce_odr hidden noundef ptr @_ZNK11Block_ArrayixEj(ptr noundef nonnull align 8 dereferenceable(24) %0, i32 noundef %1) #1 comdat align 2 {
  %3 = alloca ptr, align 8
  %4 = alloca i32, align 4
  store ptr %0, ptr %3, align 8
  store i32 %1, ptr %4, align 4
  %5 = load ptr, ptr %3, align 8
  %6 = getelementptr inbounds %class.Block_Array, ptr %5, i32 0, i32 2
  %7 = load ptr, ptr %6, align 8
  %8 = load i32, ptr %4, align 4
  %9 = zext i32 %8 to i64
  %10 = getelementptr inbounds ptr, ptr %7, i64 %9
  %11 = load ptr, ptr %10, align 8
  ret ptr %11
}

; Function Attrs: mustprogress nounwind uwtable
define linkonce_odr hidden noundef zeroext i1 @_ZNK4Node8is_StartEv(ptr noundef nonnull align 8 dereferenceable(52) %0) #1 comdat align 2 {
  %2 = alloca ptr, align 8
  store ptr %0, ptr %2, align 8
  %3 = load ptr, ptr %2, align 8
  %4 = getelementptr inbounds %class.Node, ptr %3, i32 0, i32 8
  %5 = load i32, ptr %4, align 4
  %6 = and i32 %5, 15
  %7 = icmp eq i32 %6, 9
  ret i1 %7
}

; Function Attrs: mustprogress nounwind uwtable
define linkonce_odr hidden noundef zeroext i1 @_ZNK4Node9is_RegionEv(ptr noundef nonnull align 8 dereferenceable(52) %0) #1 comdat align 2 {
  %2 = alloca ptr, align 8
  store ptr %0, ptr %2, align 8
  %3 = load ptr, ptr %2, align 8
  %4 = getelementptr inbounds %class.Node, ptr %3, i32 0, i32 8
  %5 = load i32, ptr %4, align 4
  %6 = and i32 %5, 63
  %7 = icmp eq i32 %6, 32
  ret i1 %7
}

; Function Attrs: mustprogress nounwind uwtable
define linkonce_odr hidden noundef ptr @_ZNK4Node2inEj(ptr noundef nonnull align 8 dereferenceable(52) %0, i32 noundef %1) #1 comdat align 2 {
  %3 = alloca ptr, align 8
  %4 = alloca i32, align 4
  store ptr %0, ptr %3, align 8
  store i32 %1, ptr %4, align 4
  %5 = load ptr, ptr %3, align 8
  %6 = getelementptr inbounds %class.Node, ptr %5, i32 0, i32 1
  %7 = load ptr, ptr %6, align 8
  %8 = load i32, ptr %4, align 4
  %9 = zext i32 %8 to i64
  %10 = getelementptr inbounds ptr, ptr %7, i64 %9
  %11 = load ptr, ptr %10, align 8
  ret ptr %11
}

; Function Attrs: mustprogress nounwind uwtable
define linkonce_odr hidden noundef ptr @_ZNK8PhaseCFG18get_block_for_nodeEPK4Node(ptr noundef nonnull align 8 dereferenceable(160) %0, ptr noundef %1) #1 comdat align 2 {
  %3 = alloca ptr, align 8
  %4 = alloca ptr, align 8
  store ptr %0, ptr %3, align 8
  store ptr %1, ptr %4, align 8
  %5 = load ptr, ptr %3, align 8
  %6 = getelementptr inbounds %class.PhaseCFG, ptr %5, i32 0, i32 9
  %7 = load ptr, ptr %4, align 8
  %8 = getelementptr inbounds %class.Node, ptr %7, i32 0, i32 7
  %9 = load i32, ptr %8, align 8
  %10 = call noundef ptr @_ZNK11Block_ArrayixEj(ptr noundef nonnull align 8 dereferenceable(24) %6, i32 noundef %9)
  ret ptr %10
}

; Function Attrs: mustprogress nounwind uwtable
define linkonce_odr hidden noundef zeroext i1 @_ZNK4Node14is_block_startEv(ptr noundef nonnull align 8 dereferenceable(52) %0) #1 comdat align 2 {
  %2 = alloca i1, align 1
  %3 = alloca ptr, align 8
  store ptr %0, ptr %3, align 8
  %4 = load ptr, ptr %3, align 8
  %5 = call noundef zeroext i1 @_ZNK4Node9is_RegionEv(ptr noundef nonnull align 8 dereferenceable(52) %4)
  br i1 %5, label %6, label %9

6:                                                ; preds = %1
  %7 = call noundef ptr @_ZNK4Node2inEj(ptr noundef nonnull align 8 dereferenceable(52) %4, i32 noundef 0)
  %8 = icmp eq ptr %4, %7
  store i1 %8, ptr %2, align 1
  br label %11

9:                                                ; preds = %1
  %10 = call noundef zeroext i1 @_ZNK4Node8is_StartEv(ptr noundef nonnull align 8 dereferenceable(52) %4)
  store i1 %10, ptr %2, align 1
  br label %11

11:                                               ; preds = %9, %6
  %12 = load i1, ptr %2, align 1
  ret i1 %12
}

; Function Attrs: mustprogress nounwind uwtable
define hidden noundef ptr @_ZNK8PhaseCFG19find_block_for_nodeEP4Node(ptr noundef nonnull align 8 dereferenceable(160) %0, ptr noundef %1) #1 align 2 {
  %3 = alloca ptr, align 8
  %4 = alloca ptr, align 8
  %5 = alloca ptr, align 8
  %6 = alloca ptr, align 8
  store ptr %0, ptr %4, align 8
  store ptr %1, ptr %5, align 8
  %7 = load ptr, ptr %4, align 8
  %8 = load ptr, ptr %5, align 8
  %9 = call noundef zeroext i1 @_ZNK4Node14is_block_startEv(ptr noundef nonnull align 8 dereferenceable(52) %8)
  br i1 %9, label %17, label %10

10:                                               ; preds = %2
  %11 = load ptr, ptr %5, align 8
  %12 = load ptr, ptr %11, align 8
  %13 = getelementptr inbounds ptr, ptr %12, i64 4
  %14 = load ptr, ptr %13, align 8
  %15 = call noundef ptr %14(ptr noundef nonnull align 8 dereferenceable(52) %11)
  %16 = icmp ne ptr %15, null
  br i1 %16, label %17, label %20

17:                                               ; preds = %10, %2
  %18 = load ptr, ptr %5, align 8
  %19 = call noundef ptr @_ZNK8PhaseCFG18get_block_for_nodeEPK4Node(ptr noundef nonnull align 8 dereferenceable(160) %7, ptr noundef %18)
  store ptr %19, ptr %3, align 8
  br label %33

20:                                               ; preds = %10
  %21 = load ptr, ptr %5, align 8
  %22 = call noundef ptr @_ZNK4Node2inEj(ptr noundef nonnull align 8 dereferenceable(52) %21, i32 noundef 0)
  store ptr %22, ptr %6, align 8
  br label %23

23:                                               ; preds = %27, %20
  %24 = load ptr, ptr %6, align 8
  %25 = call noundef zeroext i1 @_ZNK4Node14is_block_startEv(ptr noundef nonnull align 8 dereferenceable(52) %24)
  %26 = xor i1 %25, true
  br i1 %26, label %27, label %30

27:                                               ; preds = %23
  %28 = load ptr, ptr %6, align 8
  %29 = call noundef ptr @_ZNK4Node2inEj(ptr noundef nonnull align 8 dereferenceable(52) %28, i32 noundef 0)
  store ptr %29, ptr %6, align 8
  br label %23, !llvm.loop !9

30:                                               ; preds = %23
  %31 = load ptr, ptr %6, align 8
  %32 = call noundef ptr @_ZNK8PhaseCFG18get_block_for_nodeEPK4Node(ptr noundef nonnull align 8 dereferenceable(160) %7, ptr noundef %31)
  store ptr %32, ptr %3, align 8
  br label %33

33:                                               ; preds = %30, %17
  %34 = load ptr, ptr %3, align 8
  ret ptr %34
}