; Function Attrs: mustprogress nounwind uwtable
define hidden noundef ptr @_ZNK8PhaseCFG19find_block_for_nodeEP4Node(ptr nocapture noundef nonnull readonly align 8 dereferenceable(160) %0, ptr noundef %1) local_unnamed_addr #0 align 2 {
  %3 = getelementptr inbounds i8, ptr %1, i64 44
  %4 = load i32, ptr %3, align 4
  %5 = and i32 %4, 63
  %6 = icmp eq i32 %5, 32
  br i1 %6, label %7, label %_ZNK4Node14is_block_startEv.exit

7:                                                ; preds = %2
  %8 = getelementptr inbounds i8, ptr %1, i64 8
  %9 = load ptr, ptr %8, align 8
  %10 = load ptr, ptr %9, align 8
  %11 = icmp eq ptr %10, %1
  br i1 %11, label %.loopexit, label %14

_ZNK4Node14is_block_startEv.exit:                 ; preds = %2
  %12 = and i32 %4, 15
  %13 = icmp eq i32 %12, 9
  br i1 %13, label %.loopexit, label %14

14:                                               ; preds = %7, %_ZNK4Node14is_block_startEv.exit
  %15 = load ptr, ptr %1, align 8
  %16 = getelementptr inbounds i8, ptr %15, i64 32
  %17 = load ptr, ptr %16, align 8
  %18 = tail call noundef ptr %17(ptr noundef nonnull align 8 dereferenceable(52) %1) #14
  %.not = icmp eq ptr %18, null
  br i1 %.not, label %.preheader, label %.loopexit

.preheader:                                       ; preds = %14, %.preheader.backedge
  %.pn = phi ptr [ %.0, %.preheader.backedge ], [ %1, %14 ]
  %.0.in.in = getelementptr inbounds i8, ptr %.pn, i64 8
  %.0.in = load ptr, ptr %.0.in.in, align 8
  %.0 = load ptr, ptr %.0.in, align 8
  %19 = getelementptr inbounds i8, ptr %.0, i64 44
  %20 = load i32, ptr %19, align 4
  %21 = and i32 %20, 63
  %22 = icmp eq i32 %21, 32
  br i1 %22, label %23, label %_ZNK4Node14is_block_startEv.exit11

23:                                               ; preds = %.preheader
  %24 = getelementptr inbounds i8, ptr %.0, i64 8
  %25 = load ptr, ptr %24, align 8
  %26 = load ptr, ptr %25, align 8
  %27 = icmp eq ptr %26, %.0
  br i1 %27, label %.loopexit, label %.preheader.backedge

.preheader.backedge:                              ; preds = %23, %_ZNK4Node14is_block_startEv.exit11
  br label %.preheader, !llvm.loop !10

_ZNK4Node14is_block_startEv.exit11:               ; preds = %.preheader
  %28 = and i32 %20, 15
  %29 = icmp eq i32 %28, 9
  br i1 %29, label %.loopexit, label %.preheader.backedge

.loopexit:                                        ; preds = %_ZNK4Node14is_block_startEv.exit11, %23, %_ZNK4Node14is_block_startEv.exit, %14, %7
  %.0.lcssa.sink = phi ptr [ %1, %7 ], [ %1, %14 ], [ %1, %_ZNK4Node14is_block_startEv.exit ], [ %.0, %23 ], [ %.0, %_ZNK4Node14is_block_startEv.exit11 ]
  %30 = getelementptr inbounds i8, ptr %.0.lcssa.sink, i64 40
  %31 = load i32, ptr %30, align 8
  %32 = getelementptr inbounds i8, ptr %0, i64 120
  %33 = load ptr, ptr %32, align 8
  %34 = zext i32 %31 to i64
  %35 = getelementptr inbounds ptr, ptr %33, i64 %34
  %.09 = load ptr, ptr %35, align 8
  ret ptr %.09
}